target datalayout = "e-m:e-p270:32:32-p271:32:32-p272:64:64-i64:64-i128:128-f80:128-n8:16:32:64-S128"
target triple = "x86_64-pc-linux-gnu"

%struct._php_basic_globals = type { ptr, %struct._zend_array, ptr, ptr, i8, ptr, [256 x i8], i64, %struct._zend_fcall_info, %struct._zend_fcall_info_cache, ptr, %struct._zval_struct, %struct._zval_struct, i64, i64, i64, i64, ptr, ptr, %struct._php_stream_statbuf, %struct._php_stream_statbuf, ptr, i32, %struct.anon.7, %struct.anon.8, %struct.url_adapt_state_ex_t, %struct._zend_array, %struct.url_adapt_state_ex_t, %struct._zend_array, ptr, i32, i64 }
%struct._zend_fcall_info = type { i64, %struct._zval_struct, ptr, ptr, ptr, i32, ptr }
%struct._zend_fcall_info_cache = type { ptr, ptr, ptr, ptr, ptr }
%struct._zval_struct = type { %union._zend_value, %union.anon.3, %union.anon.6 }
%union._zend_value = type { i64 }
%union.anon.3 = type { i32 }
%union.anon.6 = type { i32 }
%struct._php_stream_statbuf = type { %struct.stat }
%struct.stat = type { i64, i64, i64, i32, i32, i32, i32, i64, i64, i64, i64, %struct.timespec, %struct.timespec, %struct.timespec, [3 x i64] }
%struct.timespec = type { i64, i64 }
%struct.anon.7 = type { ptr, i32 }
%struct.anon.8 = type { ptr, i32 }
%struct.url_adapt_state_ex_t = type { %struct.smart_str, %struct.smart_str, %struct.smart_str, %struct.smart_str, %struct.smart_str, %struct.smart_str, %struct.smart_str, i32, ptr, i32, i32, %struct.smart_str, i32, i32, ptr }
%struct.smart_str = type { ptr, i64 }
%struct._zend_array = type { %struct._zend_refcounted_h, %union.anon.0, i32, %union.anon.1, i32, i32, i32, i32, i64, ptr }
%struct._zend_refcounted_h = type { i32, %union.anon }
%union.anon = type { i32 }
%union.anon.0 = type { i32 }
%union.anon.1 = type { ptr }

@basic_globals = global %struct._php_basic_globals zeroinitializer, align 8

; Function Attrs: nounwind uwtable
define zeroext i1 @remove_user_shutdown_function(ptr noundef %0, i64 noundef %1) #0 {
  %3 = alloca i1, align 1
  %4 = alloca ptr, align 8
  %5 = alloca i64, align 8
  store ptr %0, ptr %4, align 8
  store i64 %1, ptr %5, align 8
  %6 = load ptr, ptr @basic_globals, align 8
  %7 = icmp ne ptr %6, null
  br i1 %7, label %8, label %14

8:                                                ; preds = %2
  %9 = load ptr, ptr @basic_globals, align 8
  %10 = load ptr, ptr %4, align 8
  %11 = load i64, ptr %5, align 8
  %12 = call i32 @zend_hash_str_del(ptr noundef %9, ptr noundef %10, i64 noundef %11)
  %13 = icmp ne i32 %12, -1
  store i1 %13, ptr %3, align 1
  br label %15

14:                                               ; preds = %2
  store i1 false, ptr %3, align 1
  br label %15

15:                                               ; preds = %14, %8
  %16 = load i1, ptr %3, align 1
  ret i1 %16
}