; Function Attrs: nounwind uwtable
define zeroext i1 @remove_user_shutdown_function(ptr noundef %0, i64 noundef %1) local_unnamed_addr #0 {
  %3 = load ptr, ptr @basic_globals, align 8
  %.not = icmp eq ptr %3, null
  br i1 %.not, label %7, label %4

4:                                                ; preds = %2
  %5 = tail call i32 @zend_hash_str_del(ptr noundef nonnull %3, ptr noundef %0, i64 noundef %1) #18
  %6 = icmp ne i32 %5, -1
  br label %7

7:                                                ; preds = %2, %4
  %.0 = phi i1 [ %6, %4 ], [ false, %2 ]
  ret i1 %.0
}